target datalayout = "e-m:e-p270:32:32-p271:32:32-p272:64:64-i64:64-i128:128-f80:128-n8:16:32:64-S128"
target triple = "x86_64-pc-linux-gnu"

%"struct.faiss::ScalarQuantizer::SQuantizer" = type { ptr }
%"struct.faiss::(anonymous namespace)::QuantizerTemplate.4" = type { %"struct.faiss::ScalarQuantizer::SQuantizer", i64, ptr, ptr }
%"struct.faiss::ScalarQuantizer::SQDistanceComputer" = type { %"struct.faiss::FlatCodesDistanceComputer", ptr }
%"struct.faiss::FlatCodesDistanceComputer" = type { %"struct.faiss::DistanceComputer", ptr, i64 }
%"struct.faiss::DistanceComputer" = type { ptr }
%"struct.faiss::(anonymous namespace)::DCTemplate.24" = type { %"struct.faiss::ScalarQuantizer::SQDistanceComputer", %"struct.faiss::(anonymous namespace)::QuantizerTemplate.4" }
%"struct.faiss::(anonymous namespace)::SimilarityIP" = type <{ ptr, ptr, float, [4 x i8] }>
%"struct.faiss::InvertedListScanner" = type { ptr, i64, i8, i8, ptr, i64 }
%"struct.faiss::(anonymous namespace)::IVFSQScannerIP.59" = type { %"struct.faiss::InvertedListScanner", %"struct.faiss::(anonymous namespace)::DCTemplate.24", i8, float }

; Function Attrs: mustprogress nounwind uwtable
define internal void @_ZN5faiss12_GLOBAL__N_112SimilarityIPILi1EEC2EPKf(ptr noundef nonnull align 8 dereferenceable(20) %0, ptr noundef %1) unnamed_addr #1 align 2 {
  %3 = alloca ptr, align 8
  %4 = alloca ptr, align 8
  store ptr %0, ptr %3, align 8
  store ptr %1, ptr %4, align 8
  %5 = load ptr, ptr %3, align 8
  %6 = getelementptr inbounds %"struct.faiss::(anonymous namespace)::SimilarityIP", ptr %5, i32 0, i32 0
  %7 = load ptr, ptr %4, align 8
  store ptr %7, ptr %6, align 8
  ret void
}

; Function Attrs: mustprogress uwtable
define internal noundef float @_ZNK5faiss12_GLOBAL__N_110DCTemplateINS0_17QuantizerTemplateINS0_9Codec4bitELb0ELi1EEENS0_12SimilarityIPILi1EEELi1EE16compute_distanceEPKfPKh(ptr noundef nonnull align 8 dereferenceable(64) %0, ptr noundef %1, ptr noundef %2) #0 align 2 {
  %4 = alloca ptr, align 8
  %5 = alloca float, align 4
  %6 = alloca ptr, align 8
  %7 = alloca ptr, align 8
  %8 = alloca ptr, align 8
  %9 = alloca i32, align 4
  %10 = alloca ptr, align 8
  %11 = alloca ptr, align 8
  %12 = alloca i32, align 4
  %13 = alloca float, align 4
  %14 = alloca ptr, align 8
  %15 = alloca ptr, align 8
  %16 = alloca ptr, align 8
  %17 = alloca %"struct.faiss::(anonymous namespace)::SimilarityIP", align 8
  %18 = alloca i64, align 8
  %19 = alloca float, align 4
  store ptr %0, ptr %14, align 8
  store ptr %1, ptr %15, align 8
  store ptr %2, ptr %16, align 8
  %20 = load ptr, ptr %14, align 8
  %21 = load ptr, ptr %15, align 8
  call void @_ZN5faiss12_GLOBAL__N_112SimilarityIPILi1EEC2EPKf(ptr noundef nonnull align 8 dereferenceable(20) %17, ptr noundef %21)
  store ptr %17, ptr %7, align 8
  %22 = load ptr, ptr %7, align 8
  %23 = getelementptr inbounds %"struct.faiss::(anonymous namespace)::SimilarityIP", ptr %22, i32 0, i32 2
  store float 0.000000e+00, ptr %23, align 8
  %24 = load ptr, ptr %22, align 8
  %25 = getelementptr inbounds %"struct.faiss::(anonymous namespace)::SimilarityIP", ptr %22, i32 0, i32 1
  store ptr %24, ptr %25, align 8
  store i64 0, ptr %18, align 8
  br label %26

26:                                               ; preds = %79, %3
  %27 = load i64, ptr %18, align 8
  %28 = getelementptr inbounds %"struct.faiss::(anonymous namespace)::DCTemplate.24", ptr %20, i32 0, i32 1
  %29 = getelementptr inbounds %"struct.faiss::(anonymous namespace)::QuantizerTemplate.4", ptr %28, i32 0, i32 1
  %30 = load i64, ptr %29, align 8
  %31 = icmp ult i64 %27, %30
  br i1 %31, label %32, label %82

32:                                               ; preds = %26
  %33 = getelementptr inbounds %"struct.faiss::(anonymous namespace)::DCTemplate.24", ptr %20, i32 0, i32 1
  %34 = load ptr, ptr %16, align 8
  %35 = load i64, ptr %18, align 8
  %36 = trunc i64 %35 to i32
  store ptr %33, ptr %10, align 8
  store ptr %34, ptr %11, align 8
  store i32 %36, ptr %12, align 4
  %37 = load ptr, ptr %10, align 8
  %38 = load ptr, ptr %11, align 8
  %39 = load i32, ptr %12, align 4
  store ptr %38, ptr %8, align 8
  store i32 %39, ptr %9, align 4
  %40 = load ptr, ptr %8, align 8
  %41 = load i32, ptr %9, align 4
  %42 = sdiv i32 %41, 2
  %43 = sext i32 %42 to i64
  %44 = getelementptr inbounds i8, ptr %40, i64 %43
  %45 = load i8, ptr %44, align 1
  %46 = zext i8 %45 to i32
  %47 = load i32, ptr %9, align 4
  %48 = and i32 %47, 1
  %49 = shl i32 %48, 2
  %50 = ashr i32 %46, %49
  %51 = and i32 %50, 15
  %52 = sitofp i32 %51 to float
  %53 = fadd float %52, 5.000000e-01
  %54 = fdiv float %53, 1.500000e+01
  store float %54, ptr %13, align 4
  %55 = getelementptr inbounds %"struct.faiss::(anonymous namespace)::QuantizerTemplate.4", ptr %37, i32 0, i32 2
  %56 = load ptr, ptr %55, align 8
  %57 = load i32, ptr %12, align 4
  %58 = sext i32 %57 to i64
  %59 = getelementptr inbounds float, ptr %56, i64 %58
  %60 = load float, ptr %59, align 4
  %61 = load float, ptr %13, align 4
  %62 = getelementptr inbounds %"struct.faiss::(anonymous namespace)::QuantizerTemplate.4", ptr %37, i32 0, i32 3
  %63 = load ptr, ptr %62, align 8
  %64 = load i32, ptr %12, align 4
  %65 = sext i32 %64 to i64
  %66 = getelementptr inbounds float, ptr %63, i64 %65
  %67 = load float, ptr %66, align 4
  %68 = call noundef float @llvm.fmuladd.f32(float %61, float %67, float %60)
  store float %68, ptr %19, align 4
  %69 = load float, ptr %19, align 4
  store ptr %17, ptr %4, align 8
  store float %69, ptr %5, align 4
  %70 = load ptr, ptr %4, align 8
  %71 = getelementptr inbounds %"struct.faiss::(anonymous namespace)::SimilarityIP", ptr %70, i32 0, i32 1
  %72 = load ptr, ptr %71, align 8
  %73 = getelementptr inbounds float, ptr %72, i32 1
  store ptr %73, ptr %71, align 8
  %74 = load float, ptr %72, align 4
  %75 = load float, ptr %5, align 4
  %76 = getelementptr inbounds %"struct.faiss::(anonymous namespace)::SimilarityIP", ptr %70, i32 0, i32 2
  %77 = load float, ptr %76, align 8
  %78 = call float @llvm.fmuladd.f32(float %74, float %75, float %77)
  store float %78, ptr %76, align 8
  br label %79

79:                                               ; preds = %32
  %80 = load i64, ptr %18, align 8
  %81 = add i64 %80, 1
  store i64 %81, ptr %18, align 8
  br label %26, !llvm.loop !70

82:                                               ; preds = %26
  store ptr %17, ptr %6, align 8
  %83 = load ptr, ptr %6, align 8
  %84 = getelementptr inbounds %"struct.faiss::(anonymous namespace)::SimilarityIP", ptr %83, i32 0, i32 2
  %85 = load float, ptr %84, align 8
  ret float %85
}

; Function Attrs: mustprogress uwtable
define internal noundef float @_ZNK5faiss12_GLOBAL__N_110DCTemplateINS0_17QuantizerTemplateINS0_9Codec4bitELb0ELi1EEENS0_12SimilarityIPILi1EEELi1EE13query_to_codeEPKh(ptr noundef nonnull align 8 dereferenceable(64) %0, ptr noundef %1) unnamed_addr #0 align 2 {
  %3 = alloca ptr, align 8
  %4 = alloca ptr, align 8
  store ptr %0, ptr %3, align 8
  store ptr %1, ptr %4, align 8
  %5 = load ptr, ptr %3, align 8
  %6 = getelementptr inbounds %"struct.faiss::ScalarQuantizer::SQDistanceComputer", ptr %5, i32 0, i32 1
  %7 = load ptr, ptr %6, align 8
  %8 = load ptr, ptr %4, align 8
  %9 = call noundef float @_ZNK5faiss12_GLOBAL__N_110DCTemplateINS0_17QuantizerTemplateINS0_9Codec4bitELb0ELi1EEENS0_12SimilarityIPILi1EEELi1EE16compute_distanceEPKfPKh(ptr noundef nonnull align 8 dereferenceable(64) %5, ptr noundef %7, ptr noundef %8)
  ret float %9
}

; Function Attrs: mustprogress uwtable
define internal void @_ZNK5faiss12_GLOBAL__N_114IVFSQScannerIPINS0_10DCTemplateINS0_17QuantizerTemplateINS0_9Codec4bitELb0ELi1EEENS0_12SimilarityIPILi1EEELi1EEELi2EE16scan_codes_rangeEmPKhPKlfRNS_16RangeQueryResultE(ptr noundef nonnull align 8 dereferenceable(112) %0, i64 noundef %1, ptr noundef %2, ptr noundef %3, float noundef %4, ptr noundef nonnull align 8 dereferenceable(24) %5) unnamed_addr #0 align 2 {
  %7 = alloca ptr, align 8
  %8 = alloca i64, align 8
  %9 = alloca ptr, align 8
  %10 = alloca ptr, align 8
  %11 = alloca float, align 4
  %12 = alloca ptr, align 8
  %13 = alloca i64, align 8
  %14 = alloca float, align 4
  %15 = alloca i64, align 8
  store ptr %0, ptr %7, align 8
  store i64 %1, ptr %8, align 8
  store ptr %2, ptr %9, align 8
  store ptr %3, ptr %10, align 8
  store float %4, ptr %11, align 4
  store ptr %5, ptr %12, align 8
  %16 = load ptr, ptr %7, align 8
  store i64 0, ptr %13, align 8
  br label %17

17:                                               ; preds = %61, %6
  %18 = load i64, ptr %13, align 8
  %19 = load i64, ptr %8, align 8
  %20 = icmp ult i64 %18, %19
  br i1 %20, label %21, label %68

21:                                               ; preds = %17
  %22 = getelementptr inbounds %"struct.faiss::InvertedListScanner", ptr %16, i32 0, i32 4
  %23 = load ptr, ptr %22, align 8
  %24 = load i64, ptr %13, align 8
  %25 = load ptr, ptr %23, align 8
  %26 = getelementptr inbounds ptr, ptr %25, i64 0
  %27 = load ptr, ptr %26, align 8
  %28 = call noundef zeroext i1 %27(ptr noundef nonnull align 8 dereferenceable(8) %23, i64 noundef %24)
  br i1 %28, label %30, label %29

29:                                               ; preds = %21
  br label %61

30:                                               ; preds = %21
  %31 = getelementptr inbounds %"struct.faiss::(anonymous namespace)::IVFSQScannerIP.59", ptr %16, i32 0, i32 3
  %32 = load float, ptr %31, align 4
  %33 = getelementptr inbounds %"struct.faiss::(anonymous namespace)::IVFSQScannerIP.59", ptr %16, i32 0, i32 1
  %34 = load ptr, ptr %9, align 8
  %35 = call noundef float @_ZNK5faiss12_GLOBAL__N_110DCTemplateINS0_17QuantizerTemplateINS0_9Codec4bitELb0ELi1EEENS0_12SimilarityIPILi1EEELi1EE13query_to_codeEPKh(ptr noundef nonnull align 8 dereferenceable(64) %33, ptr noundef %34)
  %36 = fadd float %32, %35
  store float %36, ptr %14, align 4
  %37 = load float, ptr %14, align 4
  %38 = load float, ptr %11, align 4
  %39 = fcmp ogt float %37, %38
  br i1 %39, label %40, label %60

40:                                               ; preds = %30
  %41 = getelementptr inbounds %"struct.faiss::InvertedListScanner", ptr %16, i32 0, i32 3
  %42 = load i8, ptr %41, align 1
  %43 = trunc i8 %42 to i1
  br i1 %43, label %44, label %50

44:                                               ; preds = %40
  %45 = getelementptr inbounds %"struct.faiss::InvertedListScanner", ptr %16, i32 0, i32 1
  %46 = load i64, ptr %45, align 8
  %47 = shl i64 %46, 32
  %48 = load i64, ptr %13, align 8
  %49 = or i64 %47, %48
  br label %55

50:                                               ; preds = %40
  %51 = load ptr, ptr %10, align 8
  %52 = load i64, ptr %13, align 8
  %53 = getelementptr inbounds i64, ptr %51, i64 %52
  %54 = load i64, ptr %53, align 8
  br label %55

55:                                               ; preds = %50, %44
  %56 = phi i64 [ %49, %44 ], [ %54, %50 ]
  store i64 %56, ptr %15, align 8
  %57 = load ptr, ptr %12, align 8
  %58 = load float, ptr %14, align 4
  %59 = load i64, ptr %15, align 8
  call void @_ZN5faiss16RangeQueryResult3addEfl(ptr noundef nonnull align 8 dereferenceable(24) %57, float noundef %58, i64 noundef %59)
  br label %60

60:                                               ; preds = %55, %30
  br label %61

61:                                               ; preds = %60, %29
  %62 = load i64, ptr %13, align 8
  %63 = add i64 %62, 1
  store i64 %63, ptr %13, align 8
  %64 = getelementptr inbounds %"struct.faiss::InvertedListScanner", ptr %16, i32 0, i32 5
  %65 = load i64, ptr %64, align 8
  %66 = load ptr, ptr %9, align 8
  %67 = getelementptr inbounds i8, ptr %66, i64 %65
  store ptr %67, ptr %9, align 8
  br label %17, !llvm.loop !146

68:                                               ; preds = %17
  ret void
}