; Function Attrs: mustprogress uwtable
define internal void @_ZNK5faiss12_GLOBAL__N_114IVFSQScannerIPINS0_10DCTemplateINS0_17QuantizerTemplateINS0_9Codec4bitELb0ELi1EEENS0_12SimilarityIPILi1EEELi1EEELi2EE16scan_codes_rangeEmPKhPKlfRNS_16RangeQueryResultE(ptr nocapture noundef nonnull readonly align 8 dereferenceable(112) %0, i64 noundef %1, ptr nocapture noundef readonly %2, ptr nocapture noundef readonly %3, float noundef %4, ptr noundef nonnull align 8 dereferenceable(24) %5) unnamed_addr #0 align 2 {
  %.not20 = icmp eq i64 %1, 0
  br i1 %.not20, label %._crit_edge, label %.lr.ph

.lr.ph:                                           ; preds = %6
  %7 = getelementptr inbounds i8, ptr %0, i64 24
  %8 = getelementptr inbounds i8, ptr %0, i64 108
  %9 = getelementptr inbounds i8, ptr %0, i64 80
  %10 = getelementptr inbounds i8, ptr %0, i64 64
  %11 = getelementptr inbounds i8, ptr %0, i64 88
  %12 = getelementptr inbounds i8, ptr %0, i64 96
  %13 = getelementptr inbounds i8, ptr %0, i64 17
  %14 = getelementptr inbounds i8, ptr %0, i64 8
  %15 = getelementptr inbounds i8, ptr %0, i64 32
  br label %16

16:                                               ; preds = %.lr.ph, %65
  %.018 = phi ptr [ %2, %.lr.ph ], [ %68, %65 ]
  %.01416 = phi i64 [ 0, %.lr.ph ], [ %66, %65 ]
  %17 = load ptr, ptr %7, align 8
  %18 = load ptr, ptr %17, align 8
  %19 = load ptr, ptr %18, align 8
  %20 = tail call noundef zeroext i1 %19(ptr noundef nonnull align 8 dereferenceable(8) %17, i64 noundef %.01416)
  br i1 %20, label %21, label %65

21:                                               ; preds = %16
  %22 = load float, ptr %8, align 4
  %23 = load i64, ptr %9, align 8
  %.not.i.i = icmp eq i64 %23, 0
  br i1 %.not.i.i, label %_ZNK5faiss12_GLOBAL__N_110DCTemplateINS0_17QuantizerTemplateINS0_9Codec4bitELb0ELi1EEENS0_12SimilarityIPILi1EEELi1EE13query_to_codeEPKh.exit, label %.lr.ph.i.i

.lr.ph.i.i:                                       ; preds = %21
  %24 = load ptr, ptr %10, align 8
  %25 = load ptr, ptr %11, align 8
  %26 = load ptr, ptr %12, align 8
  br label %27

27:                                               ; preds = %27, %.lr.ph.i.i
  %.022.i.i = phi i64 [ 0, %.lr.ph.i.i ], [ %50, %27 ]
  %.sroa.5.021.i.i = phi float [ 0.000000e+00, %.lr.ph.i.i ], [ %49, %27 ]
  %.sroa.2.020.i.i = phi ptr [ %24, %.lr.ph.i.i ], [ %47, %27 ]
  %28 = trunc i64 %.022.i.i to i32
  %29 = sdiv i32 %28, 2
  %30 = sext i32 %29 to i64
  %31 = getelementptr inbounds i8, ptr %.018, i64 %30
  %32 = load i8, ptr %31, align 1
  %33 = zext i8 %32 to i32
  %34 = shl i32 %28, 2
  %35 = and i32 %34, 4
  %36 = lshr i32 %33, %35
  %37 = and i32 %36, 15
  %38 = sitofp i32 %37 to float
  %39 = fadd float %38, 5.000000e-01
  %40 = fdiv float %39, 1.500000e+01
  %sext.i.i = shl i64 %.022.i.i, 32
  %41 = ashr exact i64 %sext.i.i, 32
  %42 = getelementptr inbounds float, ptr %25, i64 %41
  %43 = load float, ptr %42, align 4
  %44 = getelementptr inbounds float, ptr %26, i64 %41
  %45 = load float, ptr %44, align 4
  %46 = tail call noundef float @llvm.fmuladd.f32(float %40, float %45, float %43)
  %47 = getelementptr inbounds i8, ptr %.sroa.2.020.i.i, i64 4
  %48 = load float, ptr %.sroa.2.020.i.i, align 4
  %49 = tail call float @llvm.fmuladd.f32(float %48, float %46, float %.sroa.5.021.i.i)
  %50 = add nuw i64 %.022.i.i, 1
  %exitcond.not.i.i = icmp eq i64 %50, %23
  br i1 %exitcond.not.i.i, label %_ZNK5faiss12_GLOBAL__N_110DCTemplateINS0_17QuantizerTemplateINS0_9Codec4bitELb0ELi1EEENS0_12SimilarityIPILi1EEELi1EE13query_to_codeEPKh.exit, label %27, !llvm.loop !69

_ZNK5faiss12_GLOBAL__N_110DCTemplateINS0_17QuantizerTemplateINS0_9Codec4bitELb0ELi1EEENS0_12SimilarityIPILi1EEELi1EE13query_to_codeEPKh.exit: ; preds = %27, %21
  %.sroa.5.0.lcssa.i.i = phi float [ 0.000000e+00, %21 ], [ %49, %27 ]
  %51 = fadd float %22, %.sroa.5.0.lcssa.i.i
  %52 = fcmp ogt float %51, %4
  br i1 %52, label %53, label %65

53:                                               ; preds = %_ZNK5faiss12_GLOBAL__N_110DCTemplateINS0_17QuantizerTemplateINS0_9Codec4bitELb0ELi1EEENS0_12SimilarityIPILi1EEELi1EE13query_to_codeEPKh.exit
  %54 = load i8, ptr %13, align 1
  %55 = and i8 %54, 1
  %.not = icmp eq i8 %55, 0
  br i1 %.not, label %60, label %56

56:                                               ; preds = %53
  %57 = load i64, ptr %14, align 8
  %58 = shl i64 %57, 32
  %59 = or i64 %58, %.01416
  br label %63

60:                                               ; preds = %53
  %61 = getelementptr inbounds i64, ptr %3, i64 %.01416
  %62 = load i64, ptr %61, align 8
  br label %63

63:                                               ; preds = %60, %56
  %64 = phi i64 [ %59, %56 ], [ %62, %60 ]
  tail call void @_ZN5faiss16RangeQueryResult3addEfl(ptr noundef nonnull align 8 dereferenceable(24) %5, float noundef %51, i64 noundef %64)
  br label %65

65:                                               ; preds = %_ZNK5faiss12_GLOBAL__N_110DCTemplateINS0_17QuantizerTemplateINS0_9Codec4bitELb0ELi1EEENS0_12SimilarityIPILi1EEELi1EE13query_to_codeEPKh.exit, %63, %16
  %66 = add nuw i64 %.01416, 1
  %67 = load i64, ptr %15, align 8
  %68 = getelementptr inbounds i8, ptr %.018, i64 %67
  %exitcond.not = icmp eq i64 %66, %1
  br i1 %exitcond.not, label %._crit_edge, label %16, !llvm.loop !145

._crit_edge:                                      ; preds = %65, %6
  ret void
}